; Function Attrs: mustprogress uwtable
define void @_ZN9grpc_core21Chttp2PingAbusePolicyC2ERKNS_11ChannelArgsE(ptr noundef nonnull writeonly align 8 captures(none) dereferenceable(24) initializes((0, 24)) %0, ptr noundef nonnull align 8 dereferenceable(8) %1) unnamed_addr #3 align 2 personality ptr @__gxx_personality_v0 {
  store i64 -9223372036854775808, ptr %0, align 8
  %3 = getelementptr inbounds nuw i8, ptr %0, i64 8
  %4 = tail call { i64, i8 } @_ZNK9grpc_core11ChannelArgs24GetDurationFromIntMillisESt17basic_string_viewIcSt11char_traitsIcEE(ptr noundef nonnull align 8 dereferenceable(8) %1, i64 44, ptr nonnull @.str)
  %5 = extractvalue { i64, i8 } %4, 0
  %6 = extractvalue { i64, i8 } %4, 1
  %7 = trunc nuw i8 %6 to i1
  %.val3.i = load i64, ptr @_ZN9grpc_core12_GLOBAL__N_145g_default_min_recv_ping_interval_without_dataE.0, align 8
  %.sroa.0.0.i = select i1 %7, i64 %5, i64 %.val3.i
  %.sroa.speculated14 = tail call i64 @llvm.smax.i64(i64 %.sroa.0.0.i, i64 0)
  store i64 %.sroa.speculated14, ptr %3, align 8, !tbaa !3
  %8 = getelementptr inbounds nuw i8, ptr %0, i64 16
  store i32 0, ptr %8, align 8, !tbaa !7
  %9 = getelementptr inbounds nuw i8, ptr %0, i64 20
  %10 = tail call i64 @_ZNK9grpc_core11ChannelArgs6GetIntESt17basic_string_viewIcSt11char_traitsIcEE(ptr noundef nonnull align 8 dereferenceable(8) %1, i64 27, ptr nonnull @.str.1)
  %.sroa.05.0.extract.trunc = trunc i64 %10 to i32
  %11 = and i64 %10, 4294967296
  %.not = icmp eq i64 %11, 0
  %.val2.i = load i32, ptr @_ZN9grpc_core12_GLOBAL__N_126g_default_max_ping_strikesE, align 4
  %.0.i = select i1 %.not, i32 %.val2.i, i32 %.sroa.05.0.extract.trunc
  %.sroa.speculated = tail call i32 @llvm.smax.i32(i32 %.0.i, i32 0)
  store i32 %.sroa.speculated, ptr %9, align 4, !tbaa !12
  ret void
}